target datalayout = "e-m:e-p270:32:32-p271:32:32-p272:64:64-i64:64-i128:128-f80:128-n8:16:32:64-S128"
target triple = "x86_64-unknown-linux-gnu"

%"class.grpc_core::RefCountedPtr" = type { ptr }
%"class.grpc_core::Timestamp" = type { i64 }
%"class.absl::lts_20230802::Mutex" = type { %"struct.std::atomic.2" }
%"struct.std::atomic.2" = type { %"struct.std::__atomic_base.3" }
%"struct.std::__atomic_base.3" = type { i64 }
%"class.grpc_core::Slice" = type { %"class.grpc_core::slice_detail::BaseSlice" }
%"class.grpc_core::slice_detail::BaseSlice" = type { %struct.grpc_slice }
%struct.grpc_slice = type { ptr, %"union.grpc_slice::grpc_slice_data" }
%"union.grpc_slice::grpc_slice_data" = type { %"struct.grpc_slice::grpc_slice_data::grpc_slice_refcounted", [8 x i8] }
%"struct.grpc_slice::grpc_slice_data::grpc_slice_refcounted" = type { i64, ptr }
%"class.absl::lts_20230802::Status" = type { i64 }
%"struct.std::atomic.4" = type { %"struct.std::__atomic_base.5" }
%"struct.std::__atomic_base.5" = type { i64 }
%struct.grpc_compression_options = type { i32, %"struct.grpc_compression_options::grpc_compression_options_default_level", %"struct.grpc_compression_options::grpc_compression_options_default_algorithm" }
%"struct.grpc_compression_options::grpc_compression_options_default_level" = type { i32, i32 }
%"struct.grpc_compression_options::grpc_compression_options_default_algorithm" = type { i32, i32 }
%"class.grpc_core::Channel" = type { %"class.grpc_core::RefCounted", i8, i8, %struct.grpc_compression_options, %"struct.std::atomic.4", %"struct.grpc_core::CallRegistrationTable", %"class.grpc_core::RefCountedPtr.11", %"class.grpc_event_engine::experimental::MemoryAllocator", %"class.std::__cxx11::basic_string", %"class.grpc_core::RefCountedPtr.15" }
%"class.grpc_core::RefCounted" = type { %"class.grpc_core::PolymorphicRefCount", %"class.grpc_core::RefCount" }
%"class.grpc_core::PolymorphicRefCount" = type { ptr }
%"class.grpc_core::RefCount" = type { %"struct.std::atomic.2" }
%"struct.grpc_core::CallRegistrationTable" = type <{ %"class.absl::lts_20230802::Mutex", %"class.std::map", i32, [4 x i8] }>
%"class.std::map" = type { %"class.std::_Rb_tree" }
%"class.std::_Rb_tree" = type { %"struct.std::_Rb_tree<std::pair<std::__cxx11::basic_string<char>, std::__cxx11::basic_string<char>>, std::pair<const std::pair<std::__cxx11::basic_string<char>, std::__cxx11::basic_string<char>>, grpc_core::RegisteredCall>, std::_Select1st<std::pair<const std::pair<std::__cxx11::basic_string<char>, std::__cxx11::basic_string<char>>, grpc_core::RegisteredCall>>, std::less<std::pair<std::__cxx11::basic_string<char>, std::__cxx11::basic_string<char>>>>::_Rb_tree_impl" }
%"struct.std::_Rb_tree<std::pair<std::__cxx11::basic_string<char>, std::__cxx11::basic_string<char>>, std::pair<const std::pair<std::__cxx11::basic_string<char>, std::__cxx11::basic_string<char>>, grpc_core::RegisteredCall>, std::_Select1st<std::pair<const std::pair<std::__cxx11::basic_string<char>, std::__cxx11::basic_string<char>>, grpc_core::RegisteredCall>>, std::less<std::pair<std::__cxx11::basic_string<char>, std::__cxx11::basic_string<char>>>>::_Rb_tree_impl" = type { %"struct.std::_Rb_tree_key_compare", %"struct.std::_Rb_tree_header" }
%"struct.std::_Rb_tree_key_compare" = type { %"struct.std::less" }
%"struct.std::less" = type { i8 }
%"struct.std::_Rb_tree_header" = type { %"struct.std::_Rb_tree_node_base", i64 }
%"struct.std::_Rb_tree_node_base" = type { i32, ptr, ptr, ptr }
%"class.grpc_core::RefCountedPtr.11" = type { ptr }
%"class.grpc_event_engine::experimental::MemoryAllocator" = type { %"class.std::shared_ptr" }
%"class.std::shared_ptr" = type { %"class.std::__shared_ptr" }
%"class.std::__shared_ptr" = type { ptr, %"class.std::__shared_count" }
%"class.std::__shared_count" = type { ptr }
%"class.std::__cxx11::basic_string" = type { %"struct.std::__cxx11::basic_string<char>::_Alloc_hider", i64, %union.anon }
%"struct.std::__cxx11::basic_string<char>::_Alloc_hider" = type { ptr }
%union.anon = type { i64, [8 x i8] }
%"class.grpc_core::RefCountedPtr.15" = type { ptr }
%struct.grpc_call_create_args = type <{ %"class.grpc_core::RefCountedPtr", ptr, ptr, i32, [4 x i8], ptr, ptr, ptr, %"class.std::optional.102", %"class.std::optional.102", %"class.grpc_core::Timestamp", i8, [7 x i8] }>
%"class.std::optional.102" = type { %"struct.std::_Optional_base.103" }
%"struct.std::_Optional_base.103" = type { %"struct.std::_Optional_payload.105" }
%"struct.std::_Optional_payload.105" = type { %"struct.std::_Optional_payload.base.109", [7 x i8] }
%"struct.std::_Optional_payload.base.109" = type { %"struct.std::_Optional_payload_base.base.108" }
%"struct.std::_Optional_payload_base.base.108" = type <{ %"union.std::_Optional_payload_base<grpc_core::Slice>::_Storage", i8 }>
%"union.std::_Optional_payload_base<grpc_core::Slice>::_Storage" = type { %"class.grpc_core::Slice" }

; Function Attrs: mustprogress uwtable
define linkonce_odr noundef zeroext i1 @_ZN9grpc_core31IsPromiseBasedServerCallEnabledEv() #4 comdat {
entry:
  %call = call noundef zeroext i1 @_ZN9grpc_core19IsExperimentEnabledEm(i64 noundef 19)
  ret i1 %call
}

; Function Attrs: mustprogress nounwind uwtable
define linkonce_odr noundef zeroext i1 @_ZNK9grpc_core7Channel12is_promisingEv(ptr noundef nonnull align 8 dereferenceable(176) %this) #5 comdat align 2 {
entry:
  %this.addr = alloca ptr, align 8
  store ptr %this, ptr %this.addr, align 8
  %this1 = load ptr, ptr %this.addr, align 8
  %is_promising_ = getelementptr inbounds %"class.grpc_core::Channel", ptr %this1, i32 0, i32 2
  %0 = load i8, ptr %is_promising_, align 1
  %tobool = trunc i8 %0 to i1
  ret i1 %tobool
}

; Function Attrs: mustprogress nounwind uwtable
define linkonce_odr noundef ptr @_ZNK9grpc_core13RefCountedPtrINS_7ChannelEEptEv(ptr noundef nonnull align 8 dereferenceable(8) %this) #5 comdat align 2 {
entry:
  %this.addr = alloca ptr, align 8
  store ptr %this, ptr %this.addr, align 8
  %this1 = load ptr, ptr %this.addr, align 8
  %value_ = getelementptr inbounds %"class.grpc_core::RefCountedPtr", ptr %this1, i32 0, i32 0
  %0 = load ptr, ptr %value_, align 8
  ret ptr %0
}

; Function Attrs: mustprogress uwtable
define linkonce_odr noundef zeroext i1 @_ZN9grpc_core31IsPromiseBasedClientCallEnabledEv() #4 comdat {
entry:
  %call = call noundef zeroext i1 @_ZN9grpc_core19IsExperimentEnabledEm(i64 noundef 18)
  ret i1 %call
}

; Function Attrs: mustprogress uwtable
define void @_Z16grpc_call_createP21grpc_call_create_argsPP9grpc_call(ptr noalias sret(%"class.absl::lts_20230802::Status") align 8 %agg.result, ptr noundef %args, ptr noundef %out_call) #4 {
entry:
  %result.ptr = alloca ptr, align 8
  %args.addr = alloca ptr, align 8
  %out_call.addr = alloca ptr, align 8
  store ptr %agg.result, ptr %result.ptr, align 8
  store ptr %args, ptr %args.addr, align 8
  store ptr %out_call, ptr %out_call.addr, align 8
  %call = call noundef zeroext i1 @_ZN9grpc_core31IsPromiseBasedClientCallEnabledEv()
  br i1 %call, label %land.lhs.true, label %if.end

land.lhs.true:                                    ; preds = %entry
  %0 = load ptr, ptr %args.addr, align 8
  %server_transport_data = getelementptr inbounds %struct.grpc_call_create_args, ptr %0, i32 0, i32 7
  %1 = load ptr, ptr %server_transport_data, align 8
  %cmp = icmp eq ptr %1, null
  br i1 %cmp, label %land.lhs.true1, label %if.end

land.lhs.true1:                                   ; preds = %land.lhs.true
  %2 = load ptr, ptr %args.addr, align 8
  %channel = getelementptr inbounds %struct.grpc_call_create_args, ptr %2, i32 0, i32 0
  %call2 = call noundef ptr @_ZNK9grpc_core13RefCountedPtrINS_7ChannelEEptEv(ptr noundef nonnull align 8 dereferenceable(8) %channel)
  %call3 = call noundef zeroext i1 @_ZNK9grpc_core7Channel12is_promisingEv(ptr noundef nonnull align 8 dereferenceable(176) %call2)
  br i1 %call3, label %if.then, label %if.end

if.then:                                          ; preds = %land.lhs.true1
  %3 = load ptr, ptr %args.addr, align 8
  %4 = load ptr, ptr %out_call.addr, align 8
  call void @_ZN9grpc_core20MakePromiseBasedCallINS_22ClientPromiseBasedCallEEEN4absl12lts_202308026StatusEP21grpc_call_create_argsPP9grpc_call(ptr sret(%"class.absl::lts_20230802::Status") align 8 %agg.result, ptr noundef %3, ptr noundef %4)
  br label %return

if.end:                                           ; preds = %land.lhs.true1, %land.lhs.true, %entry
  %call4 = call noundef zeroext i1 @_ZN9grpc_core31IsPromiseBasedServerCallEnabledEv()
  br i1 %call4, label %land.lhs.true5, label %if.end13

land.lhs.true5:                                   ; preds = %if.end
  %5 = load ptr, ptr %args.addr, align 8
  %server_transport_data6 = getelementptr inbounds %struct.grpc_call_create_args, ptr %5, i32 0, i32 7
  %6 = load ptr, ptr %server_transport_data6, align 8
  %cmp7 = icmp ne ptr %6, null
  br i1 %cmp7, label %land.lhs.true8, label %if.end13

land.lhs.true8:                                   ; preds = %land.lhs.true5
  %7 = load ptr, ptr %args.addr, align 8
  %channel9 = getelementptr inbounds %struct.grpc_call_create_args, ptr %7, i32 0, i32 0
  %call10 = call noundef ptr @_ZNK9grpc_core13RefCountedPtrINS_7ChannelEEptEv(ptr noundef nonnull align 8 dereferenceable(8) %channel9)
  %call11 = call noundef zeroext i1 @_ZNK9grpc_core7Channel12is_promisingEv(ptr noundef nonnull align 8 dereferenceable(176) %call10)
  br i1 %call11, label %if.then12, label %if.end13

if.then12:                                        ; preds = %land.lhs.true8
  %8 = load ptr, ptr %args.addr, align 8
  %9 = load ptr, ptr %out_call.addr, align 8
  call void @_ZN9grpc_core20MakePromiseBasedCallINS_22ServerPromiseBasedCallEEEN4absl12lts_202308026StatusEP21grpc_call_create_argsPP9grpc_call(ptr sret(%"class.absl::lts_20230802::Status") align 8 %agg.result, ptr noundef %8, ptr noundef %9)
  br label %return

if.end13:                                         ; preds = %land.lhs.true8, %land.lhs.true5, %if.end
  %10 = load ptr, ptr %args.addr, align 8
  %11 = load ptr, ptr %out_call.addr, align 8
  call void @_ZN9grpc_core15FilterStackCall6CreateEP21grpc_call_create_argsPP9grpc_call(ptr sret(%"class.absl::lts_20230802::Status") align 8 %agg.result, ptr noundef %10, ptr noundef %11)
  br label %return

return:                                           ; preds = %if.end13, %if.then12, %if.then
  ret void
}