; Function Attrs: mustprogress uwtable
define void @_Z16grpc_call_createP21grpc_call_create_argsPP9grpc_call(ptr noalias sret(%"class.absl::lts_20230802::Status") align 8 %agg.result, ptr noundef %args, ptr noundef %out_call) local_unnamed_addr #3 {
entry:
  %call.i = tail call noundef zeroext i1 @_ZN9grpc_core19IsExperimentEnabledEm(i64 noundef 18)
  br i1 %call.i, label %land.lhs.true, label %if.end

land.lhs.true:                                    ; preds = %entry
  %server_transport_data = getelementptr inbounds i8, ptr %args, i64 48
  %0 = load ptr, ptr %server_transport_data, align 8
  %cmp = icmp eq ptr %0, null
  br i1 %cmp, label %land.lhs.true1, label %if.end

land.lhs.true1:                                   ; preds = %land.lhs.true
  %1 = load ptr, ptr %args, align 8
  %is_promising_.i = getelementptr inbounds i8, ptr %1, i64 17
  %2 = load i8, ptr %is_promising_.i, align 1
  %3 = and i8 %2, 1
  %tobool.i.not = icmp eq i8 %3, 0
  br i1 %tobool.i.not, label %if.end, label %if.then

if.then:                                          ; preds = %land.lhs.true1
  tail call void @_ZN9grpc_core20MakePromiseBasedCallINS_22ClientPromiseBasedCallEEEN4absl12lts_202308026StatusEP21grpc_call_create_argsPP9grpc_call(ptr sret(%"class.absl::lts_20230802::Status") align 8 %agg.result, ptr noundef nonnull %args, ptr noundef %out_call)
  br label %return

if.end:                                           ; preds = %land.lhs.true1, %land.lhs.true, %entry
  %call.i9 = tail call noundef zeroext i1 @_ZN9grpc_core19IsExperimentEnabledEm(i64 noundef 19)
  br i1 %call.i9, label %land.lhs.true5, label %if.end13

land.lhs.true5:                                   ; preds = %if.end
  %server_transport_data6 = getelementptr inbounds i8, ptr %args, i64 48
  %4 = load ptr, ptr %server_transport_data6, align 8
  %cmp7.not = icmp eq ptr %4, null
  br i1 %cmp7.not, label %if.end13, label %land.lhs.true8

land.lhs.true8:                                   ; preds = %land.lhs.true5
  %5 = load ptr, ptr %args, align 8
  %is_promising_.i10 = getelementptr inbounds i8, ptr %5, i64 17
  %6 = load i8, ptr %is_promising_.i10, align 1
  %7 = and i8 %6, 1
  %tobool.i11.not = icmp eq i8 %7, 0
  br i1 %tobool.i11.not, label %if.end13, label %if.then12

if.then12:                                        ; preds = %land.lhs.true8
  tail call void @_ZN9grpc_core20MakePromiseBasedCallINS_22ServerPromiseBasedCallEEEN4absl12lts_202308026StatusEP21grpc_call_create_argsPP9grpc_call(ptr sret(%"class.absl::lts_20230802::Status") align 8 %agg.result, ptr noundef nonnull %args, ptr noundef %out_call)
  br label %return

if.end13:                                         ; preds = %land.lhs.true8, %land.lhs.true5, %if.end
  tail call void @_ZN9grpc_core15FilterStackCall6CreateEP21grpc_call_create_argsPP9grpc_call(ptr sret(%"class.absl::lts_20230802::Status") align 8 %agg.result, ptr noundef %args, ptr noundef %out_call)
  br label %return

return:                                           ; preds = %if.end13, %if.then12, %if.then
  ret void
}